target datalayout = "e-m:e-p270:32:32-p271:32:32-p272:64:64-i64:64-i128:128-f80:128-n8:16:32:64-S128"
target triple = "x86_64-pc-linux-gnu"

%"class.cv::tinyxml2::StrPair" = type { i32, ptr, ptr }

; Function Attrs: mustprogress nounwind uwtable
define hidden void @_ZN2cv8tinyxml27StrPair5ResetEv(ptr noundef nonnull align 8 dereferenceable(24) %0) #0 align 2 {
  %2 = alloca ptr, align 8
  store ptr %0, ptr %2, align 8, !tbaa !3
  %3 = load ptr, ptr %2, align 8
  %4 = getelementptr inbounds nuw %"class.cv::tinyxml2::StrPair", ptr %3, i32 0, i32 0
  %5 = load i32, ptr %4, align 8, !tbaa !8
  %6 = and i32 %5, 512
  %7 = icmp ne i32 %6, 0
  br i1 %7, label %8, label %14

8:                                                ; preds = %1
  %9 = getelementptr inbounds nuw %"class.cv::tinyxml2::StrPair", ptr %3, i32 0, i32 1
  %10 = load ptr, ptr %9, align 8, !tbaa !12
  %11 = icmp eq ptr %10, null
  br i1 %11, label %13, label %12

12:                                               ; preds = %8
  call void @_ZdaPv(ptr noundef %10) #16
  br label %13

13:                                               ; preds = %12, %8
  br label %14

14:                                               ; preds = %13, %1
  %15 = getelementptr inbounds nuw %"class.cv::tinyxml2::StrPair", ptr %3, i32 0, i32 0
  store i32 0, ptr %15, align 8, !tbaa !8
  %16 = getelementptr inbounds nuw %"class.cv::tinyxml2::StrPair", ptr %3, i32 0, i32 1
  store ptr null, ptr %16, align 8, !tbaa !12
  %17 = getelementptr inbounds nuw %"class.cv::tinyxml2::StrPair", ptr %3, i32 0, i32 2
  store ptr null, ptr %17, align 8, !tbaa !13
  ret void
}

; Function Attrs: mustprogress nounwind uwtable
define linkonce_odr hidden void @_ZN2cv8tinyxml27StrPair3SetEPcS2_i(ptr noundef nonnull align 8 dereferenceable(24) %0, ptr noundef %1, ptr noundef %2, i32 noundef %3) #0 comdat align 2 {
  %5 = alloca ptr, align 8
  %6 = alloca ptr, align 8
  %7 = alloca ptr, align 8
  %8 = alloca i32, align 4
  store ptr %0, ptr %5, align 8, !tbaa !3
  store ptr %1, ptr %6, align 8, !tbaa !14
  store ptr %2, ptr %7, align 8, !tbaa !14
  store i32 %3, ptr %8, align 4, !tbaa !15
  %9 = load ptr, ptr %5, align 8
  call void @_ZN2cv8tinyxml27StrPair5ResetEv(ptr noundef nonnull align 8 dereferenceable(24) %9)
  %10 = load ptr, ptr %6, align 8, !tbaa !14
  %11 = getelementptr inbounds nuw %"class.cv::tinyxml2::StrPair", ptr %9, i32 0, i32 1
  store ptr %10, ptr %11, align 8, !tbaa !12
  %12 = load ptr, ptr %7, align 8, !tbaa !14
  %13 = getelementptr inbounds nuw %"class.cv::tinyxml2::StrPair", ptr %9, i32 0, i32 2
  store ptr %12, ptr %13, align 8, !tbaa !13
  %14 = load i32, ptr %8, align 4, !tbaa !15
  %15 = or i32 %14, 256
  %16 = getelementptr inbounds nuw %"class.cv::tinyxml2::StrPair", ptr %9, i32 0, i32 0
  store i32 %15, ptr %16, align 8, !tbaa !8
  ret void
}

; Function Attrs: inlinehint mustprogress nounwind uwtable
define linkonce_odr hidden noundef zeroext i1 @_ZN2cv8tinyxml27XMLUtil10IsNameCharEh(i8 noundef zeroext %0) #8 comdat align 2 {
  %2 = alloca i8, align 1
  store i8 %0, ptr %2, align 1, !tbaa !18
  %3 = load i8, ptr %2, align 1, !tbaa !18
  %4 = call noundef zeroext i1 @_ZN2cv8tinyxml27XMLUtil15IsNameStartCharEh(i8 noundef zeroext %3)
  br i1 %4, label %18, label %5

5:                                                ; preds = %1
  %6 = load i8, ptr %2, align 1, !tbaa !18
  %7 = zext i8 %6 to i32
  %8 = call i32 @isdigit(i32 noundef %7) #18
  %9 = icmp ne i32 %8, 0
  br i1 %9, label %18, label %10

10:                                               ; preds = %5
  %11 = load i8, ptr %2, align 1, !tbaa !18
  %12 = zext i8 %11 to i32
  %13 = icmp eq i32 %12, 46
  br i1 %13, label %18, label %14

14:                                               ; preds = %10
  %15 = load i8, ptr %2, align 1, !tbaa !18
  %16 = zext i8 %15 to i32
  %17 = icmp eq i32 %16, 45
  br label %18

18:                                               ; preds = %14, %10, %5, %1
  %19 = phi i1 [ true, %10 ], [ true, %5 ], [ true, %1 ], [ %17, %14 ]
  ret i1 %19
}

; Function Attrs: inlinehint mustprogress nounwind uwtable
define linkonce_odr hidden noundef zeroext i1 @_ZN2cv8tinyxml27XMLUtil15IsNameStartCharEh(i8 noundef zeroext %0) #8 comdat align 2 {
  %2 = alloca i8, align 1
  store i8 %0, ptr %2, align 1, !tbaa !18
  %3 = load i8, ptr %2, align 1, !tbaa !18
  %4 = zext i8 %3 to i32
  %5 = icmp slt i32 %4, 128
  br i1 %5, label %6, label %10

6:                                                ; preds = %1
  %7 = load i8, ptr %2, align 1, !tbaa !18
  %8 = zext i8 %7 to i32
  %9 = call i32 @isalpha(i32 noundef %8) #18
  br label %11

10:                                               ; preds = %1
  br label %11

11:                                               ; preds = %10, %6
  %12 = phi i32 [ %9, %6 ], [ 1, %10 ]
  %13 = icmp ne i32 %12, 0
  br i1 %13, label %22, label %14

14:                                               ; preds = %11
  %15 = load i8, ptr %2, align 1, !tbaa !18
  %16 = zext i8 %15 to i32
  %17 = icmp eq i32 %16, 58
  br i1 %17, label %22, label %18

18:                                               ; preds = %14
  %19 = load i8, ptr %2, align 1, !tbaa !18
  %20 = zext i8 %19 to i32
  %21 = icmp eq i32 %20, 95
  br label %22

22:                                               ; preds = %18, %14, %11
  %23 = phi i1 [ true, %14 ], [ true, %11 ], [ %21, %18 ]
  ret i1 %23
}

; Function Attrs: mustprogress uwtable
define hidden noundef ptr @_ZN2cv8tinyxml27StrPair9ParseNameEPc(ptr noundef nonnull align 8 dereferenceable(24) %0, ptr noundef %1) #3 align 2 {
  %3 = alloca ptr, align 8
  %4 = alloca ptr, align 8
  %5 = alloca ptr, align 8
  %6 = alloca ptr, align 8
  %7 = alloca i32, align 4
  store ptr %0, ptr %4, align 8, !tbaa !3
  store ptr %1, ptr %5, align 8, !tbaa !14
  %8 = load ptr, ptr %4, align 8
  call void @llvm.lifetime.start.p0(i64 8, ptr %6) #17
  %9 = load ptr, ptr %5, align 8, !tbaa !14
  store ptr %9, ptr %6, align 8, !tbaa !14
  %10 = load ptr, ptr %6, align 8, !tbaa !14
  %11 = icmp ne ptr %10, null
  br i1 %11, label %12, label %16

12:                                               ; preds = %2
  %13 = load ptr, ptr %6, align 8, !tbaa !14
  %14 = load i8, ptr %13, align 1, !tbaa !18
  %15 = icmp ne i8 %14, 0
  br i1 %15, label %17, label %16

16:                                               ; preds = %12, %2
  store ptr null, ptr %3, align 8
  store i32 1, ptr %7, align 4
  br label %50

17:                                               ; preds = %12
  br label %18

18:                                               ; preds = %38, %17
  %19 = load ptr, ptr %5, align 8, !tbaa !14
  %20 = load i8, ptr %19, align 1, !tbaa !18
  %21 = icmp ne i8 %20, 0
  br i1 %21, label %22, label %36

22:                                               ; preds = %18
  %23 = load ptr, ptr %5, align 8, !tbaa !14
  %24 = load ptr, ptr %6, align 8, !tbaa !14
  %25 = icmp eq ptr %23, %24
  br i1 %25, label %26, label %30

26:                                               ; preds = %22
  %27 = load ptr, ptr %5, align 8, !tbaa !14
  %28 = load i8, ptr %27, align 1, !tbaa !18
  %29 = call noundef zeroext i1 @_ZN2cv8tinyxml27XMLUtil15IsNameStartCharEh(i8 noundef zeroext %28)
  br label %34

30:                                               ; preds = %22
  %31 = load ptr, ptr %5, align 8, !tbaa !14
  %32 = load i8, ptr %31, align 1, !tbaa !18
  %33 = call noundef zeroext i1 @_ZN2cv8tinyxml27XMLUtil10IsNameCharEh(i8 noundef zeroext %32)
  br label %34

34:                                               ; preds = %30, %26
  %35 = phi i1 [ %29, %26 ], [ %33, %30 ]
  br label %36

36:                                               ; preds = %34, %18
  %37 = phi i1 [ false, %18 ], [ %35, %34 ]
  br i1 %37, label %38, label %41

38:                                               ; preds = %36
  %39 = load ptr, ptr %5, align 8, !tbaa !14
  %40 = getelementptr inbounds nuw i8, ptr %39, i32 1
  store ptr %40, ptr %5, align 8, !tbaa !14
  br label %18, !llvm.loop !21

41:                                               ; preds = %36
  %42 = load ptr, ptr %5, align 8, !tbaa !14
  %43 = load ptr, ptr %6, align 8, !tbaa !14
  %44 = icmp ugt ptr %42, %43
  br i1 %44, label %45, label %49

45:                                               ; preds = %41
  %46 = load ptr, ptr %6, align 8, !tbaa !14
  %47 = load ptr, ptr %5, align 8, !tbaa !14
  call void @_ZN2cv8tinyxml27StrPair3SetEPcS2_i(ptr noundef nonnull align 8 dereferenceable(24) %8, ptr noundef %46, ptr noundef %47, i32 noundef 0)
  %48 = load ptr, ptr %5, align 8, !tbaa !14
  store ptr %48, ptr %3, align 8
  store i32 1, ptr %7, align 4
  br label %50

49:                                               ; preds = %41
  store ptr null, ptr %3, align 8
  store i32 1, ptr %7, align 4
  br label %50

50:                                               ; preds = %49, %45, %16
  call void @llvm.lifetime.end.p0(i64 8, ptr %6) #17
  %51 = load ptr, ptr %3, align 8
  ret ptr %51
}