; Function Attrs: mustprogress nounwind uwtable
define hidden noundef ptr @_ZN2cv8tinyxml27StrPair9ParseNameEPc(ptr noundef nonnull align 8 captures(none) dereferenceable(24) %0, ptr noundef %1) local_unnamed_addr #0 align 2 {
  %.not = icmp eq ptr %1, null
  br i1 %.not, label %.critedge.thread, label %3

3:                                                ; preds = %2
  %4 = load i8, ptr %1, align 1, !tbaa !12
  %.not19 = icmp eq i8 %4, 0
  br i1 %.not19, label %.critedge.thread, label %.preheader

.preheader:                                       ; preds = %3, %_ZN2cv8tinyxml27XMLUtil10IsNameCharEh.exit.thread
  %.01625 = phi ptr [ %17, %_ZN2cv8tinyxml27XMLUtil10IsNameCharEh.exit.thread ], [ %1, %3 ]
  %5 = phi i8 [ %.pr, %_ZN2cv8tinyxml27XMLUtil10IsNameCharEh.exit.thread ], [ %4, %3 ]
  %6 = icmp eq ptr %.01625, %1
  %7 = icmp sgt i8 %5, -1
  br i1 %6, label %8, label %11

8:                                                ; preds = %.preheader
  br i1 %7, label %_ZN2cv8tinyxml27XMLUtil15IsNameStartCharEh.exit, label %_ZN2cv8tinyxml27XMLUtil10IsNameCharEh.exit.thread

_ZN2cv8tinyxml27XMLUtil15IsNameStartCharEh.exit:  ; preds = %8
  %9 = zext nneg i8 %5 to i32
  %10 = tail call i32 @isalpha(i32 noundef %9) #26
  %.fr = freeze i32 %10
  %.not24 = icmp eq i32 %.fr, 0
  br i1 %.not24, label %switch.early.test, label %_ZN2cv8tinyxml27XMLUtil10IsNameCharEh.exit.thread

switch.early.test:                                ; preds = %_ZN2cv8tinyxml27XMLUtil15IsNameStartCharEh.exit
  switch i8 %5, label %.critedge.thread [
    i8 95, label %_ZN2cv8tinyxml27XMLUtil10IsNameCharEh.exit.thread
    i8 58, label %_ZN2cv8tinyxml27XMLUtil10IsNameCharEh.exit.thread
  ]

11:                                               ; preds = %.preheader
  br i1 %7, label %_ZN2cv8tinyxml27XMLUtil15IsNameStartCharEh.exit.i, label %_ZN2cv8tinyxml27XMLUtil10IsNameCharEh.exit.thread

_ZN2cv8tinyxml27XMLUtil15IsNameStartCharEh.exit.i: ; preds = %11
  %12 = zext nneg i8 %5 to i32
  %13 = tail call i32 @isalpha(i32 noundef %12) #26
  %.fr.i = freeze i32 %13
  %.not.i = icmp eq i32 %.fr.i, 0
  br i1 %.not.i, label %switch.early.test.i, label %_ZN2cv8tinyxml27XMLUtil10IsNameCharEh.exit.thread

switch.early.test.i:                              ; preds = %_ZN2cv8tinyxml27XMLUtil15IsNameStartCharEh.exit.i
  switch i8 %5, label %_ZN2cv8tinyxml27XMLUtil10IsNameCharEh.exit [
    i8 95, label %_ZN2cv8tinyxml27XMLUtil10IsNameCharEh.exit.thread
    i8 58, label %_ZN2cv8tinyxml27XMLUtil10IsNameCharEh.exit.thread
  ]

_ZN2cv8tinyxml27XMLUtil10IsNameCharEh.exit:       ; preds = %switch.early.test.i
  %14 = add nsw i8 %5, -48
  %isdigit.i = icmp ult i8 %14, 10
  %15 = add nsw i8 %5, -45
  %16 = icmp ult i8 %15, 2
  %spec.select.i21 = or i1 %isdigit.i, %16
  br i1 %spec.select.i21, label %_ZN2cv8tinyxml27XMLUtil10IsNameCharEh.exit.thread, label %.critedge

_ZN2cv8tinyxml27XMLUtil10IsNameCharEh.exit.thread: ; preds = %switch.early.test, %switch.early.test, %_ZN2cv8tinyxml27XMLUtil15IsNameStartCharEh.exit, %8, %_ZN2cv8tinyxml27XMLUtil15IsNameStartCharEh.exit.i, %11, %switch.early.test.i, %switch.early.test.i, %_ZN2cv8tinyxml27XMLUtil10IsNameCharEh.exit
  %17 = getelementptr inbounds nuw i8, ptr %.01625, i64 1
  %.pr = load i8, ptr %17, align 1, !tbaa !12
  %.not20 = icmp eq i8 %.pr, 0
  br i1 %.not20, label %.critedge, label %.preheader, !llvm.loop !15

.critedge:                                        ; preds = %_ZN2cv8tinyxml27XMLUtil10IsNameCharEh.exit.thread, %_ZN2cv8tinyxml27XMLUtil10IsNameCharEh.exit
  %.016.lcssa = phi ptr [ %17, %_ZN2cv8tinyxml27XMLUtil10IsNameCharEh.exit.thread ], [ %.01625, %_ZN2cv8tinyxml27XMLUtil10IsNameCharEh.exit ]
  %18 = icmp ugt ptr %.016.lcssa, %1
  br i1 %18, label %19, label %.critedge.thread

19:                                               ; preds = %.critedge
  %20 = load i32, ptr %0, align 8, !tbaa !3
  %21 = and i32 %20, 512
  %.not.i.i = icmp eq i32 %21, 0
  br i1 %.not.i.i, label %_ZN2cv8tinyxml27StrPair3SetEPcS2_i.exit, label %22

22:                                               ; preds = %19
  %23 = getelementptr inbounds nuw i8, ptr %0, i64 8
  %24 = load ptr, ptr %23, align 8, !tbaa !10
  %25 = icmp eq ptr %24, null
  br i1 %25, label %_ZN2cv8tinyxml27StrPair3SetEPcS2_i.exit, label %26

26:                                               ; preds = %22
  tail call void @_ZdaPv(ptr noundef nonnull %24) #23
  br label %_ZN2cv8tinyxml27StrPair3SetEPcS2_i.exit

_ZN2cv8tinyxml27StrPair3SetEPcS2_i.exit:          ; preds = %19, %22, %26
  %27 = getelementptr inbounds nuw i8, ptr %0, i64 8
  store ptr %1, ptr %27, align 8, !tbaa !10
  %28 = getelementptr inbounds nuw i8, ptr %0, i64 16
  store ptr %.016.lcssa, ptr %28, align 8, !tbaa !11
  store i32 256, ptr %0, align 8, !tbaa !3
  br label %.critedge.thread

.critedge.thread:                                 ; preds = %switch.early.test, %.critedge, %2, %3, %_ZN2cv8tinyxml27StrPair3SetEPcS2_i.exit
  %.0 = phi ptr [ %.016.lcssa, %_ZN2cv8tinyxml27StrPair3SetEPcS2_i.exit ], [ null, %3 ], [ null, %2 ], [ null, %.critedge ], [ null, %switch.early.test ]
  ret ptr %.0
}